; Function Attrs: mustprogress uwtable
define noundef ptr @_ZNK6icu_7713DecimalFormat5cloneEv(ptr noundef nonnull align 8 dereferenceable(72) %0) unnamed_addr #1 align 2 personality ptr @__gxx_personality_v0 {
  %2 = getelementptr inbounds nuw i8, ptr %0, i64 64
  %3 = load ptr, ptr %2, align 8, !tbaa !25
  %4 = icmp eq ptr %3, null
  br i1 %4, label %_ZN6icu_7712LocalPointerINS_13DecimalFormatEED2Ev.exit, label %5

5:                                                ; preds = %1
  %6 = tail call noundef ptr @_ZN6icu_777UMemorynwEm(i64 noundef 72) #19
  %7 = icmp eq ptr %6, null
  br i1 %7, label %_ZN6icu_7712LocalPointerINS_13DecimalFormatEED2Ev.exit, label %8

8:                                                ; preds = %5
  invoke void @_ZN6icu_7713DecimalFormatC1ERKS0_(ptr noundef nonnull align 8 dereferenceable(72) %6, ptr noundef nonnull align 8 dereferenceable(72) %0)
          to label %9 unwind label %12

9:                                                ; preds = %8
  %10 = getelementptr inbounds nuw i8, ptr %6, i64 64
  %11 = load ptr, ptr %10, align 8, !tbaa !25
  %.not6 = icmp eq ptr %11, null
  br i1 %.not6, label %14, label %_ZN6icu_7712LocalPointerINS_13DecimalFormatEED2Ev.exit

12:                                               ; preds = %8
  %13 = landingpad { ptr, i32 }
          cleanup
  tail call void @_ZN6icu_777UMemorydlEPv(ptr noundef nonnull %6) #19
  resume { ptr, i32 } %13

14:                                               ; preds = %9
  %15 = load ptr, ptr %6, align 8, !tbaa !18
  %16 = getelementptr inbounds nuw i8, ptr %15, i64 8
  %17 = load ptr, ptr %16, align 8
  tail call void %17(ptr noundef nonnull align 8 dereferenceable(72) %6) #19
  br label %_ZN6icu_7712LocalPointerINS_13DecimalFormatEED2Ev.exit

_ZN6icu_7712LocalPointerINS_13DecimalFormatEED2Ev.exit: ; preds = %9, %5, %14, %1
  %.0 = phi ptr [ null, %1 ], [ null, %14 ], [ null, %5 ], [ %6, %9 ]
  ret ptr %.0
}